; Function Attrs: mustprogress noreturn uwtable
define void @_ZNK5Yosys3AST7AstNode11input_errorEPKcz(ptr noundef nonnull align 8 dereferenceable(284) %0, ptr noundef %1, ...) local_unnamed_addr #6 align 2 {
  %3 = alloca [1 x %struct.__va_list_tag], align 16
  call void @llvm.va_start(ptr nonnull %3)
  %4 = getelementptr inbounds i8, ptr %0, i64 232
  %5 = getelementptr inbounds i8, ptr %0, i64 264
  %6 = load i32, ptr %5, align 8
  call void @_ZN5Yosys15logv_file_errorERKNSt7__cxx1112basic_stringIcSt11char_traitsIcESaIcEEEiPKcP13__va_list_tag(ptr noundef nonnull align 8 dereferenceable(32) %4, i32 noundef %6, ptr noundef %1, ptr noundef nonnull %3) #35
  unreachable
}